target datalayout = "e-m:e-p270:32:32-p271:32:32-p272:64:64-i64:64-i128:128-f80:128-n8:16:32:64-S128"
target triple = "x86_64-unknown-linux-gnu"

%"class.icu_75::UTF16CollationIterator" = type { %"class.icu_75::CollationIterator.base", ptr, ptr, ptr }
%"class.icu_75::CollationIterator.base" = type <{ %"class.icu_75::UObject", ptr, ptr, %"class.icu_75::CollationIterator::CEBuffer", i32, [4 x i8], ptr, i32, i8 }>
%"class.icu_75::UObject" = type { ptr }
%"class.icu_75::CollationIterator::CEBuffer" = type { i32, %"class.icu_75::MaybeStackArray.0" }
%"class.icu_75::MaybeStackArray.0" = type { ptr, i32, i8, [40 x i64] }

; Function Attrs: mustprogress nounwind uwtable
define void @_ZN6icu_7522UTF16CollationIterator20forwardNumCodePointsEiR10UErrorCode(ptr noundef nonnull align 8 dereferenceable(416) %this, i32 noundef %num, ptr noundef nonnull align 4 dereferenceable(4) %0) unnamed_addr #0 align 2 {
entry:
  %this.addr = alloca ptr, align 8
  %num.addr = alloca i32, align 4
  %.addr = alloca ptr, align 8
  %c = alloca i32, align 4
  store ptr %this, ptr %this.addr, align 8
  store i32 %num, ptr %num.addr, align 4
  store ptr %0, ptr %.addr, align 8
  %this1 = load ptr, ptr %this.addr, align 8
  br label %while.cond

while.cond:                                       ; preds = %if.end23, %entry
  %1 = load i32, ptr %num.addr, align 4
  %cmp = icmp sgt i32 %1, 0
  br i1 %cmp, label %land.rhs, label %land.end

land.rhs:                                         ; preds = %while.cond
  %pos = getelementptr inbounds %"class.icu_75::UTF16CollationIterator", ptr %this1, i32 0, i32 2
  %2 = load ptr, ptr %pos, align 8
  %limit = getelementptr inbounds %"class.icu_75::UTF16CollationIterator", ptr %this1, i32 0, i32 3
  %3 = load ptr, ptr %limit, align 8
  %cmp2 = icmp ne ptr %2, %3
  br label %land.end

land.end:                                         ; preds = %land.rhs, %while.cond
  %4 = phi i1 [ false, %while.cond ], [ %cmp2, %land.rhs ]
  br i1 %4, label %while.body, label %while.end

while.body:                                       ; preds = %land.end
  %pos3 = getelementptr inbounds %"class.icu_75::UTF16CollationIterator", ptr %this1, i32 0, i32 2
  %5 = load ptr, ptr %pos3, align 8
  %6 = load i16, ptr %5, align 2
  %conv = zext i16 %6 to i32
  store i32 %conv, ptr %c, align 4
  %7 = load i32, ptr %c, align 4
  %cmp4 = icmp eq i32 %7, 0
  br i1 %cmp4, label %land.lhs.true, label %if.end

land.lhs.true:                                    ; preds = %while.body
  %limit5 = getelementptr inbounds %"class.icu_75::UTF16CollationIterator", ptr %this1, i32 0, i32 3
  %8 = load ptr, ptr %limit5, align 8
  %cmp6 = icmp eq ptr %8, null
  br i1 %cmp6, label %if.then, label %if.end

if.then:                                          ; preds = %land.lhs.true
  %pos7 = getelementptr inbounds %"class.icu_75::UTF16CollationIterator", ptr %this1, i32 0, i32 2
  %9 = load ptr, ptr %pos7, align 8
  %limit8 = getelementptr inbounds %"class.icu_75::UTF16CollationIterator", ptr %this1, i32 0, i32 3
  store ptr %9, ptr %limit8, align 8
  br label %while.end

if.end:                                           ; preds = %land.lhs.true, %while.body
  %pos9 = getelementptr inbounds %"class.icu_75::UTF16CollationIterator", ptr %this1, i32 0, i32 2
  %10 = load ptr, ptr %pos9, align 8
  %incdec.ptr = getelementptr inbounds i16, ptr %10, i32 1
  store ptr %incdec.ptr, ptr %pos9, align 8
  %11 = load i32, ptr %num.addr, align 4
  %dec = add nsw i32 %11, -1
  store i32 %dec, ptr %num.addr, align 4
  %12 = load i32, ptr %c, align 4
  %and = and i32 %12, -1024
  %cmp10 = icmp eq i32 %and, 55296
  br i1 %cmp10, label %land.lhs.true11, label %if.end23

land.lhs.true11:                                  ; preds = %if.end
  %pos12 = getelementptr inbounds %"class.icu_75::UTF16CollationIterator", ptr %this1, i32 0, i32 2
  %13 = load ptr, ptr %pos12, align 8
  %limit13 = getelementptr inbounds %"class.icu_75::UTF16CollationIterator", ptr %this1, i32 0, i32 3
  %14 = load ptr, ptr %limit13, align 8
  %cmp14 = icmp ne ptr %13, %14
  br i1 %cmp14, label %land.lhs.true15, label %if.end23

land.lhs.true15:                                  ; preds = %land.lhs.true11
  %pos16 = getelementptr inbounds %"class.icu_75::UTF16CollationIterator", ptr %this1, i32 0, i32 2
  %15 = load ptr, ptr %pos16, align 8
  %16 = load i16, ptr %15, align 2
  %conv17 = zext i16 %16 to i32
  %and18 = and i32 %conv17, -1024
  %cmp19 = icmp eq i32 %and18, 56320
  br i1 %cmp19, label %if.then20, label %if.end23

if.then20:                                        ; preds = %land.lhs.true15
  %pos21 = getelementptr inbounds %"class.icu_75::UTF16CollationIterator", ptr %this1, i32 0, i32 2
  %17 = load ptr, ptr %pos21, align 8
  %incdec.ptr22 = getelementptr inbounds i16, ptr %17, i32 1
  store ptr %incdec.ptr22, ptr %pos21, align 8
  br label %if.end23

if.end23:                                         ; preds = %if.then20, %land.lhs.true15, %land.lhs.true11, %if.end
  br label %while.cond, !llvm.loop !4

while.end:                                        ; preds = %if.then, %land.end
  ret void
}