; Function Attrs: mustprogress nofree norecurse nosync nounwind memory(read, argmem: readwrite, inaccessiblemem: none) uwtable
define void @_ZN6icu_7522UTF16CollationIterator20forwardNumCodePointsEiR10UErrorCode(ptr nocapture noundef nonnull align 8 dereferenceable(416) %this, i32 noundef %num, ptr nocapture nonnull readnone align 4 %0) unnamed_addr #10 align 2 {
entry:
  %cmp5 = icmp sgt i32 %num, 0
  br i1 %cmp5, label %land.rhs.lr.ph, label %while.end

land.rhs.lr.ph:                                   ; preds = %entry
  %pos = getelementptr inbounds i8, ptr %this, i64 400
  %limit = getelementptr inbounds i8, ptr %this, i64 408
  %1 = load ptr, ptr %limit, align 8
  %.fr = freeze ptr %1
  %cmp6 = icmp eq ptr %.fr, null
  %pos.promoted = load ptr, ptr %pos, align 8
  br i1 %cmp6, label %land.rhs, label %land.rhs.us

land.rhs.us:                                      ; preds = %land.rhs.lr.ph, %if.end23.us
  %2 = phi ptr [ %7, %if.end23.us ], [ %pos.promoted, %land.rhs.lr.ph ]
  %num.addr.06.us = phi i32 [ %dec.us, %if.end23.us ], [ %num, %land.rhs.lr.ph ]
  %cmp2.not.us = icmp eq ptr %2, %.fr
  br i1 %cmp2.not.us, label %while.end, label %while.body.us

while.body.us:                                    ; preds = %land.rhs.us
  %3 = load i16, ptr %2, align 2
  %incdec.ptr.us = getelementptr inbounds i8, ptr %2, i64 2
  store ptr %incdec.ptr.us, ptr %pos, align 8
  %dec.us = add nsw i32 %num.addr.06.us, -1
  %4 = and i16 %3, -1024
  %cmp10.us = icmp ne i16 %4, -10240
  %cmp14.not.us = icmp eq ptr %incdec.ptr.us, %.fr
  %or.cond4.us = select i1 %cmp10.us, i1 true, i1 %cmp14.not.us
  br i1 %or.cond4.us, label %if.end23.us, label %land.lhs.true15.us

land.lhs.true15.us:                               ; preds = %while.body.us
  %5 = load i16, ptr %incdec.ptr.us, align 2
  %6 = and i16 %5, -1024
  %cmp19.us = icmp eq i16 %6, -9216
  br i1 %cmp19.us, label %if.then20.us, label %if.end23.us

if.then20.us:                                     ; preds = %land.lhs.true15.us
  %incdec.ptr22.us = getelementptr inbounds i8, ptr %2, i64 4
  store ptr %incdec.ptr22.us, ptr %pos, align 8
  br label %if.end23.us

if.end23.us:                                      ; preds = %if.then20.us, %land.lhs.true15.us, %while.body.us
  %7 = phi ptr [ %incdec.ptr22.us, %if.then20.us ], [ %incdec.ptr.us, %land.lhs.true15.us ], [ %incdec.ptr.us, %while.body.us ]
  %cmp.us = icmp ugt i32 %num.addr.06.us, 1
  br i1 %cmp.us, label %land.rhs.us, label %while.end, !llvm.loop !4

land.rhs:                                         ; preds = %land.rhs.lr.ph, %if.end23
  %8 = phi ptr [ %13, %if.end23 ], [ %pos.promoted, %land.rhs.lr.ph ]
  %num.addr.06 = phi i32 [ %dec, %if.end23 ], [ %num, %land.rhs.lr.ph ]
  %cmp2.not = icmp eq ptr %8, null
  br i1 %cmp2.not, label %while.end, label %while.body

while.body:                                       ; preds = %land.rhs
  %9 = load i16, ptr %8, align 2
  %cmp4 = icmp eq i16 %9, 0
  br i1 %cmp4, label %if.then, label %if.end

if.then:                                          ; preds = %while.body
  store ptr %8, ptr %limit, align 8
  br label %while.end

if.end:                                           ; preds = %while.body
  %incdec.ptr = getelementptr inbounds i8, ptr %8, i64 2
  store ptr %incdec.ptr, ptr %pos, align 8
  %dec = add nsw i32 %num.addr.06, -1
  %10 = and i16 %9, -1024
  %cmp10.not = icmp eq i16 %10, -10240
  br i1 %cmp10.not, label %land.lhs.true15, label %if.end23

land.lhs.true15:                                  ; preds = %if.end
  %11 = load i16, ptr %incdec.ptr, align 2
  %12 = and i16 %11, -1024
  %cmp19 = icmp eq i16 %12, -9216
  br i1 %cmp19, label %if.then20, label %if.end23

if.then20:                                        ; preds = %land.lhs.true15
  %incdec.ptr22 = getelementptr inbounds i8, ptr %8, i64 4
  store ptr %incdec.ptr22, ptr %pos, align 8
  br label %if.end23

if.end23:                                         ; preds = %if.then20, %land.lhs.true15, %if.end
  %13 = phi ptr [ %incdec.ptr22, %if.then20 ], [ %incdec.ptr, %land.lhs.true15 ], [ %incdec.ptr, %if.end ]
  %cmp = icmp ugt i32 %num.addr.06, 1
  br i1 %cmp, label %land.rhs, label %while.end, !llvm.loop !4

while.end:                                        ; preds = %land.rhs.us, %if.end23.us, %land.rhs, %if.end23, %entry, %if.then
  ret void
}